; Function Attrs: nounwind sspstrong uwtable
define internal noundef i64 @nucomp_loader(i64 noundef returned %0, i64 noundef %1) #0 {
  %3 = inttoptr i64 %0 to ptr
  %4 = getelementptr inbounds nuw i8, ptr %3, i64 16
  %5 = load i64, ptr @id_i_real, align 8, !tbaa !11
  %6 = tail call i64 @rb_ivar_get(i64 noundef %1, i64 noundef %5) #17
  store i64 %6, ptr %4, align 8, !tbaa !11
  %7 = icmp eq i64 %6, 0
  %8 = and i64 %6, 7
  %9 = icmp ne i64 %8, 0
  %10 = or i1 %7, %9
  br i1 %10, label %rb_obj_write.exit, label %11

11:                                               ; preds = %2
  tail call void @rb_gc_writebarrier(i64 noundef %0, i64 noundef %6) #17
  br label %rb_obj_write.exit

rb_obj_write.exit:                                ; preds = %2, %11
  %12 = getelementptr inbounds nuw i8, ptr %3, i64 24
  %13 = load i64, ptr @id_i_imag, align 8, !tbaa !11
  %14 = tail call i64 @rb_ivar_get(i64 noundef %1, i64 noundef %13) #17
  store i64 %14, ptr %12, align 8, !tbaa !11
  %15 = icmp eq i64 %14, 0
  %16 = and i64 %14, 7
  %17 = icmp ne i64 %16, 0
  %18 = or i1 %15, %17
  br i1 %18, label %rb_obj_write.exit8, label %19

19:                                               ; preds = %rb_obj_write.exit
  tail call void @rb_gc_writebarrier(i64 noundef %0, i64 noundef %14) #17
  br label %rb_obj_write.exit8

rb_obj_write.exit8:                               ; preds = %rb_obj_write.exit, %19
  tail call void @rb_obj_freeze_inline(i64 noundef %0) #17
  ret i64 %0
}